target datalayout = "e-m:e-p270:32:32-p271:32:32-p272:64:64-i64:64-i128:128-f80:128-n8:16:32:64-S128"
target triple = "x86_64-pc-linux-gnu"

%struct.DdLevelQueue = type { ptr, ptr, ptr, ptr, i32, i32, i32, i32, i32, i32 }
%struct.DdQueueItem = type { ptr, ptr, ptr }

; Function Attrs: nounwind uwtable
define void @cuddLevelQueueQuit(ptr noundef %0) #0 {
  %2 = alloca ptr, align 8
  %3 = alloca ptr, align 8
  store ptr %0, ptr %2, align 8
  br label %4

4:                                                ; preds = %23, %1
  %5 = load ptr, ptr %2, align 8
  %6 = getelementptr inbounds %struct.DdLevelQueue, ptr %5, i32 0, i32 2
  %7 = load ptr, ptr %6, align 8
  %8 = icmp ne ptr %7, null
  br i1 %8, label %9, label %24

9:                                                ; preds = %4
  %10 = load ptr, ptr %2, align 8
  %11 = getelementptr inbounds %struct.DdLevelQueue, ptr %10, i32 0, i32 2
  %12 = load ptr, ptr %11, align 8
  store ptr %12, ptr %3, align 8
  %13 = load ptr, ptr %3, align 8
  %14 = getelementptr inbounds %struct.DdQueueItem, ptr %13, i32 0, i32 0
  %15 = load ptr, ptr %14, align 8
  %16 = load ptr, ptr %2, align 8
  %17 = getelementptr inbounds %struct.DdLevelQueue, ptr %16, i32 0, i32 2
  store ptr %15, ptr %17, align 8
  %18 = load ptr, ptr %3, align 8
  %19 = icmp ne ptr %18, null
  br i1 %19, label %20, label %22

20:                                               ; preds = %9
  %21 = load ptr, ptr %3, align 8
  call void @free(ptr noundef %21) #6
  store ptr null, ptr %3, align 8
  br label %23

22:                                               ; preds = %9
  br label %23

23:                                               ; preds = %22, %20
  br label %4, !llvm.loop !4

24:                                               ; preds = %4
  br label %25

25:                                               ; preds = %44, %24
  %26 = load ptr, ptr %2, align 8
  %27 = getelementptr inbounds %struct.DdLevelQueue, ptr %26, i32 0, i32 0
  %28 = load ptr, ptr %27, align 8
  %29 = icmp ne ptr %28, null
  br i1 %29, label %30, label %45

30:                                               ; preds = %25
  %31 = load ptr, ptr %2, align 8
  %32 = getelementptr inbounds %struct.DdLevelQueue, ptr %31, i32 0, i32 0
  %33 = load ptr, ptr %32, align 8
  store ptr %33, ptr %3, align 8
  %34 = load ptr, ptr %3, align 8
  %35 = getelementptr inbounds %struct.DdQueueItem, ptr %34, i32 0, i32 0
  %36 = load ptr, ptr %35, align 8
  %37 = load ptr, ptr %2, align 8
  %38 = getelementptr inbounds %struct.DdLevelQueue, ptr %37, i32 0, i32 0
  store ptr %36, ptr %38, align 8
  %39 = load ptr, ptr %3, align 8
  %40 = icmp ne ptr %39, null
  br i1 %40, label %41, label %43

41:                                               ; preds = %30
  %42 = load ptr, ptr %3, align 8
  call void @free(ptr noundef %42) #6
  store ptr null, ptr %3, align 8
  br label %44

43:                                               ; preds = %30
  br label %44

44:                                               ; preds = %43, %41
  br label %25, !llvm.loop !6

45:                                               ; preds = %25
  %46 = load ptr, ptr %2, align 8
  %47 = getelementptr inbounds %struct.DdLevelQueue, ptr %46, i32 0, i32 3
  %48 = load ptr, ptr %47, align 8
  %49 = icmp ne ptr %48, null
  br i1 %49, label %50, label %56

50:                                               ; preds = %45
  %51 = load ptr, ptr %2, align 8
  %52 = getelementptr inbounds %struct.DdLevelQueue, ptr %51, i32 0, i32 3
  %53 = load ptr, ptr %52, align 8
  call void @free(ptr noundef %53) #6
  %54 = load ptr, ptr %2, align 8
  %55 = getelementptr inbounds %struct.DdLevelQueue, ptr %54, i32 0, i32 3
  store ptr null, ptr %55, align 8
  br label %57

56:                                               ; preds = %45
  br label %57

57:                                               ; preds = %56, %50
  %58 = load ptr, ptr %2, align 8
  %59 = getelementptr inbounds %struct.DdLevelQueue, ptr %58, i32 0, i32 1
  %60 = load ptr, ptr %59, align 8
  %61 = icmp ne ptr %60, null
  br i1 %61, label %62, label %68

62:                                               ; preds = %57
  %63 = load ptr, ptr %2, align 8
  %64 = getelementptr inbounds %struct.DdLevelQueue, ptr %63, i32 0, i32 1
  %65 = load ptr, ptr %64, align 8
  call void @free(ptr noundef %65) #6
  %66 = load ptr, ptr %2, align 8
  %67 = getelementptr inbounds %struct.DdLevelQueue, ptr %66, i32 0, i32 1
  store ptr null, ptr %67, align 8
  br label %69

68:                                               ; preds = %57
  br label %69

69:                                               ; preds = %68, %62
  %70 = load ptr, ptr %2, align 8
  %71 = icmp ne ptr %70, null
  br i1 %71, label %72, label %74

72:                                               ; preds = %69
  %73 = load ptr, ptr %2, align 8
  call void @free(ptr noundef %73) #6
  store ptr null, ptr %2, align 8
  br label %75

74:                                               ; preds = %69
  br label %75

75:                                               ; preds = %74, %72
  ret void
}