; Function Attrs: nounwind uwtable
define void @cuddLevelQueueQuit(ptr noundef captures(none) %0) local_unnamed_addr #0 {
  %2 = getelementptr inbounds nuw i8, ptr %0, i64 16
  %3 = load ptr, ptr %2, align 8
  %.not26 = icmp eq ptr %3, null
  br i1 %.not26, label %.preheader, label %.lr.ph

.preheader:                                       ; preds = %.lr.ph, %1
  %4 = load ptr, ptr %0, align 8
  %.not2327 = icmp eq ptr %4, null
  br i1 %.not2327, label %._crit_edge, label %.lr.ph28

.lr.ph:                                           ; preds = %1, %.lr.ph
  %5 = phi ptr [ %7, %.lr.ph ], [ %3, %1 ]
  %6 = load ptr, ptr %5, align 8
  store ptr %6, ptr %2, align 8
  tail call void @free(ptr noundef nonnull %5) #9
  %7 = load ptr, ptr %2, align 8
  %.not = icmp eq ptr %7, null
  br i1 %.not, label %.preheader, label %.lr.ph, !llvm.loop !4

.lr.ph28:                                         ; preds = %.preheader, %.lr.ph28
  %8 = phi ptr [ %10, %.lr.ph28 ], [ %4, %.preheader ]
  %9 = load ptr, ptr %8, align 8
  store ptr %9, ptr %0, align 8
  tail call void @free(ptr noundef nonnull %8) #9
  %10 = load ptr, ptr %0, align 8
  %.not23 = icmp eq ptr %10, null
  br i1 %.not23, label %._crit_edge, label %.lr.ph28, !llvm.loop !6

._crit_edge:                                      ; preds = %.lr.ph28, %.preheader
  %11 = getelementptr inbounds nuw i8, ptr %0, i64 24
  %12 = load ptr, ptr %11, align 8
  %.not24 = icmp eq ptr %12, null
  br i1 %.not24, label %14, label %13

13:                                               ; preds = %._crit_edge
  tail call void @free(ptr noundef nonnull %12) #9
  store ptr null, ptr %11, align 8
  br label %14

14:                                               ; preds = %._crit_edge, %13
  %15 = getelementptr inbounds nuw i8, ptr %0, i64 8
  %16 = load ptr, ptr %15, align 8
  %.not25 = icmp eq ptr %16, null
  br i1 %.not25, label %18, label %17

17:                                               ; preds = %14
  tail call void @free(ptr noundef nonnull %16) #9
  br label %18

18:                                               ; preds = %17, %14
  tail call void @free(ptr noundef nonnull %0) #9
  ret void
}